target datalayout = "e-m:e-p270:32:32-p271:32:32-p272:64:64-i64:64-i128:128-f80:128-n8:16:32:64-S128"
target triple = "x86_64-pc-linux-gnu"

%struct.Ivy_Obj_t_ = type { i32, i32, i32, i32, ptr, ptr, ptr, ptr, ptr, ptr, ptr, ptr }
%struct.Ivy_FraigMan_t_ = type { ptr, i64, i64, ptr, ptr, i32, ptr, ptr, i32, ptr, ptr, %struct.Ivy_FraigList_t_, %struct.Ivy_FraigList_t_, i32, ptr, i32, ptr, ptr, i32, i32, i32, i32, i32, i32, i32, i32, i32, i32, i32, i32, i32, i64, i64, i64, i64, i64, i64, i64, i64, i64, i64 }
%struct.Ivy_FraigList_t_ = type { ptr, ptr, i32 }
%struct.Ivy_FraigSim_t_ = type { i32, ptr, ptr, ptr, [0 x i32] }

; Function Attrs: inlinehint nounwind uwtable
define internal ptr @Ivy_ObjSim(ptr noundef %0) #4 {
  %2 = alloca ptr, align 8
  store ptr %0, ptr %2, align 8, !tbaa !72
  %3 = load ptr, ptr %2, align 8, !tbaa !72
  %4 = getelementptr inbounds nuw %struct.Ivy_Obj_t_, ptr %3, i32 0, i32 6
  %5 = load ptr, ptr %4, align 8, !tbaa !126
  ret ptr %5
}

; Function Attrs: nounwind uwtable
define void @Ivy_NodeComplementSim(ptr noundef %0, ptr noundef %1) #0 {
  %3 = alloca ptr, align 8
  %4 = alloca ptr, align 8
  %5 = alloca ptr, align 8
  %6 = alloca i32, align 4
  store ptr %0, ptr %3, align 8, !tbaa !60
  store ptr %1, ptr %4, align 8, !tbaa !72
  call void @llvm.lifetime.start.p0(i64 8, ptr %5) #12
  call void @llvm.lifetime.start.p0(i64 4, ptr %6) #12
  %7 = load ptr, ptr %4, align 8, !tbaa !72
  %8 = call ptr @Ivy_ObjSim(ptr noundef %7)
  store ptr %8, ptr %5, align 8, !tbaa !102
  store i32 0, ptr %6, align 4, !tbaa !44
  br label %9

9:                                                ; preds = %28, %2
  %10 = load i32, ptr %6, align 4, !tbaa !44
  %11 = load ptr, ptr %3, align 8, !tbaa !60
  %12 = getelementptr inbounds nuw %struct.Ivy_FraigMan_t_, ptr %11, i32 0, i32 5
  %13 = load i32, ptr %12, align 8, !tbaa !100
  %14 = icmp slt i32 %10, %13
  br i1 %14, label %15, label %31

15:                                               ; preds = %9
  %16 = load ptr, ptr %5, align 8, !tbaa !102
  %17 = getelementptr inbounds nuw %struct.Ivy_FraigSim_t_, ptr %16, i32 0, i32 4
  %18 = load i32, ptr %6, align 4, !tbaa !44
  %19 = sext i32 %18 to i64
  %20 = getelementptr inbounds [0 x i32], ptr %17, i64 0, i64 %19
  %21 = load i32, ptr %20, align 4, !tbaa !44
  %22 = xor i32 %21, -1
  %23 = load ptr, ptr %5, align 8, !tbaa !102
  %24 = getelementptr inbounds nuw %struct.Ivy_FraigSim_t_, ptr %23, i32 0, i32 4
  %25 = load i32, ptr %6, align 4, !tbaa !44
  %26 = sext i32 %25 to i64
  %27 = getelementptr inbounds [0 x i32], ptr %24, i64 0, i64 %26
  store i32 %22, ptr %27, align 4, !tbaa !44
  br label %28

28:                                               ; preds = %15
  %29 = load i32, ptr %6, align 4, !tbaa !44
  %30 = add nsw i32 %29, 1
  store i32 %30, ptr %6, align 4, !tbaa !44
  br label %9, !llvm.loop !143

31:                                               ; preds = %9
  call void @llvm.lifetime.end.p0(i64 4, ptr %6) #12
  call void @llvm.lifetime.end.p0(i64 8, ptr %5) #12
  ret void
}