; Function Attrs: nofree norecurse nosync nounwind memory(readwrite, inaccessiblemem: none) uwtable
define void @Ivy_NodeComplementSim(ptr noundef readonly captures(none) %0, ptr noundef readonly captures(none) %1) local_unnamed_addr #9 {
  %3 = getelementptr inbounds nuw i8, ptr %0, i64 40
  %4 = load i32, ptr %3, align 8, !tbaa !96
  %5 = icmp sgt i32 %4, 0
  br i1 %5, label %.lr.ph, label %._crit_edge

.lr.ph:                                           ; preds = %2
  %6 = getelementptr i8, ptr %1, i64 32
  %.val = load ptr, ptr %6, align 8, !tbaa !103
  %7 = getelementptr inbounds nuw i8, ptr %.val, i64 32
  br label %8

8:                                                ; preds = %.lr.ph, %8
  %indvars.iv = phi i64 [ 0, %.lr.ph ], [ %indvars.iv.next, %8 ]
  %9 = getelementptr inbounds nuw [0 x i32], ptr %7, i64 0, i64 %indvars.iv
  %10 = load i32, ptr %9, align 4, !tbaa !38
  %11 = xor i32 %10, -1
  store i32 %11, ptr %9, align 4, !tbaa !38
  %indvars.iv.next = add nuw nsw i64 %indvars.iv, 1
  %12 = load i32, ptr %3, align 8, !tbaa !96
  %13 = sext i32 %12 to i64
  %14 = icmp slt i64 %indvars.iv.next, %13
  br i1 %14, label %8, label %._crit_edge, !llvm.loop !158

._crit_edge:                                      ; preds = %8, %2
  ret void
}